Certificate:
    Data:
        Version: 3 (0x2)
        Serial Number: 2 (0x2)
        Signature Algorithm: sha256WithRSAEncryption
        Issuer: O=MANH, OU=MANH Root CA, CN=MANH Root CA
        Validity
            Not Before: Dec 30 16:24:45 2016 GMT
            Not After : Dec 30 16:24:45 2026 GMT
        Subject: O=MANH, OU=MANH Signing CA, CN=MANH Signing CA
        Subject Public Key Info:
            Public Key Algorithm: rsaEncryption
            RSA Public Key: (2048 bit)
                Modulus (2048 bit):
                    00:db:28:b5:89:52:89:5f:1e:87:28:5e:77:d3:94:
                    59:2d:6e:e2:f4:83:9c:6b:1b:95:b1:e1:95:fc:0b:
                    81:2c:63:b1:41:74:33:2c:87:08:be:ad:d9:a7:4b:
                    a8:e8:18:6b:8c:b4:63:c6:97:bd:e4:75:22:b9:4c:
                    42:5f:e8:f4:11:52:a1:72:28:ad:89:c0:94:5f:08:
                    fb:ba:8f:ff:c7:ef:dc:43:ae:e7:c1:30:1f:6e:c9:
                    49:ef:c0:09:50:a1:55:ee:df:99:32:23:a6:e6:05:
                    0f:14:ff:45:3e:d7:a6:1f:06:77:34:ba:ca:e9:76:
                    1c:ad:76:97:08:f9:ef:06:a3:f4:3e:ea:ce:ef:66:
                    d5:ee:b9:1c:9e:2b:57:04:17:fb:1f:2b:a3:9d:be:
                    09:17:d9:bf:16:e3:af:e2:ec:db:b0:47:23:c0:8c:
                    9d:d2:b9:78:59:63:92:05:0f:36:e4:97:91:60:2a:
                    57:79:cb:74:bf:86:68:a6:ae:8d:74:0d:12:9f:18:
                    ee:2d:5c:4e:68:7f:42:da:64:36:0c:b7:67:41:4b:
                    ff:ed:89:e1:cf:77:4b:e7:0a:91:bf:d2:e1:20:69:
                    85:70:c9:71:8c:cc:a4:fc:0d:9e:db:61:a9:65:80:
                    02:65:b9:44:5e:81:46:b5:14:02:bb:93:3c:09:ce:
                    49:f1
                Exponent: 65537 (0x10001)
        X509v3 extensions:
            X509v3 Key Usage: critical
                Certificate Sign, CRL Sign
            X509v3 Basic Constraints: critical
                CA:TRUE, pathlen:0
            X509v3 Subject Key Identifier: 
                A5:31:D1:C0:5C:F2:4F:CC:0F:F9:01:D6:0D:E0:C5:DC:77:4D:3C:7C
            X509v3 Authority Key Identifier: 
                keyid:48:7F:4D:43:34:0F:4D:F6:52:7E:DA:F4:98:C8:F5:9E:02:FA:E1:1C

    Signature Algorithm: sha256WithRSAEncryption
        7b:16:f7:d8:bd:21:1c:9b:f8:a4:43:6f:68:12:82:d1:25:e9:
        52:23:c6:60:4d:58:22:88:d8:3c:ef:1b:14:fd:9e:32:da:63:
        b0:ec:1b:02:f5:2d:05:d0:cb:f5:2f:8f:6d:fb:96:40:18:c9:
        f0:83:e9:5b:6e:42:49:69:aa:ac:c1:34:96:0a:fe:e9:e7:7f:
        b6:a7:c5:15:46:01:d7:14:c1:cb:51:d1:9a:34:cf:50:64:1a:
        6e:a2:2f:18:33:1d:c9:cc:48:c4:a0:3f:e9:bb:06:9c:b4:50:
        e6:ae:f3:ab:a8:cf:3a:26:3c:d0:fb:b3:96:50:a2:52:76:4d:
        eb:a8:6a:35:0a:f7:f0:2a:cc:8a:ef:5d:7b:ea:b6:55:a1:3a:
        02:1c:fa:95:56:62:aa:53:b4:d7:ea:be:5e:44:35:d0:f7:66:
        df:3e:3b:5d:6c:98:b0:8c:9d:4c:bc:39:9b:a9:fd:ec:78:a0:
        b4:bf:97:46:98:f7:2e:4a:e7:4a:e5:c4:e8:fe:f1:23:a4:ad:
        7f:f4:d3:c6:4d:e0:99:50:37:b2:d3:76:13:69:77:c4:8d:43:
        fe:70:0d:96:6d:c8:e0:2f:2e:21:c9:48:e8:4f:56:cb:d9:c8:
        99:32:09:4a:b5:c9:65:34:18:fd:8d:a2:e8:8e:5f:19:30:9d:
        cf:ac:1b:95
-----BEGIN CERTIFICATE-----
MIIDYTCCAkmgAwIBAgIBAjANBgkqhkiG9w0BAQsFADA9MQ0wCwYDVQQKDARNQU5I
MRUwEwYDVQQLDAxNQU5IIFJvb3QgQ0ExFTATBgNVBAMMDE1BTkggUm9vdCBDQTAe
Fw0xNjEyMzAxNjI0NDVaFw0yNjEyMzAxNjI0NDVaMEMxDTALBgNVBAoMBE1BTkgx
GDAWBgNVBAsMD01BTkggU2lnbmluZyBDQTEYMBYGA1UEAwwPTUFOSCBTaWduaW5n
IENBMIIBIjANBgkqhkiG9w0BAQEFAAOCAQ8AMIIBCgKCAQEA2yi1iVKJXx6HKF53
05RZLW7i9IOcaxuVseGV/AuBLGOxQXQzLIcIvq3Zp0uo6BhrjLRjxpe95HUiuUxC
X+j0EVKhciiticCUXwj7uo//x+/cQ67nwTAfbslJ78AJUKFV7t+ZMiOm5gUPFP9F
PtemHwZ3NLrK6XYcrXaXCPnvBqP0PurO72bV7rkcnitXBBf7Hyujnb4JF9m/FuOv
4uzbsEcjwIyd0rl4WWOSBQ825JeRYCpXect0v4Zopq6NdA0SnxjuLVxOaH9C2mQ2
DLdnQUv/7Ynhz3dL5wqRv9LhIGmFcMlxjMyk/A2e22GpZYACZblEXoFGtRQCu5M8
Cc5J8QIDAQABo2YwZDAOBgNVHQ8BAf8EBAMCAQYwEgYDVR0TAQH/BAgwBgEB/wIB
ADAdBgNVHQ4EFgQUpTHRwFzyT8wP+QHWDeDF3HdNPHwwHwYDVR0jBBgwFoAUSH9N
QzQPTfZSftr0mMj1ngL64RwwDQYJKoZIhvcNAQELBQADggEBAHsW99i9IRyb+KRD
b2gSgtEl6VIjxmBNWCKI2DzvGxT9njLaY7DsGwL1LQXQy/Uvj237lkAYyfCD6Vtu
QklpqqzBNJYK/unnf7anxRVGAdcUwctR0Zo0z1BkGm6iLxgzHcnMSMSgP+m7Bpy0
UOau86uozzomPND7s5ZQolJ2TeuoajUK9/AqzIrvXXvqtlWhOgIc+pVWYqpTtNfq
vl5ENdD3Zt8+O11smLCMnUy8OZup/ex4oLS/l0aY9y5K50rlxOj+8SOkrX/008ZN
4JlQN7LTdhNpd8SNQ/5wDZZtyOAvLiHJSOhPVsvZyJkyCUq1yWU0GP2NouiOXxkw
nc+sG5U=
-----END CERTIFICATE-----
