Certificate:
    Data:
        Version: 3 (0x2)
        Serial Number: 1 (0x1)
        Signature Algorithm: sha256WithRSAEncryption
        Issuer: O=MANH, OU=MANH Root CA, CN=MANH Root CA
        Validity
            Not Before: Dec 30 16:24:45 2016 GMT
            Not After : Dec 30 16:24:45 2026 GMT
        Subject: O=MANH, OU=MANH Root CA, CN=MANH Root CA
        Subject Public Key Info:
            Public Key Algorithm: rsaEncryption
            RSA Public Key: (2048 bit)
                Modulus (2048 bit):
                    00:af:89:40:3f:7e:ed:9b:6b:51:04:0b:07:ed:d9:
                    89:3b:7a:31:8a:50:20:a0:85:9a:37:95:0e:d6:3b:
                    03:b4:8f:09:bf:bb:f7:08:88:3c:0f:20:df:41:b6:
                    42:9a:d8:cd:3d:dc:ac:72:d9:e7:00:6a:a8:c7:2b:
                    3c:f6:b7:d5:96:f0:02:4a:bf:bb:83:09:6a:e1:51:
                    e8:29:7a:b7:d5:91:fd:52:8e:8b:7c:82:96:0c:3e:
                    42:c3:45:e9:17:ec:88:c3:08:e2:19:55:9f:29:a6:
                    ce:71:f7:7d:92:49:19:b6:c2:32:f6:b0:47:98:c3:
                    84:39:dc:eb:35:28:32:7f:0b:9d:53:ea:2e:3a:0f:
                    6c:92:85:76:8a:e1:a2:99:ec:f1:b6:6e:9a:cf:dd:
                    af:ee:6b:89:31:c4:d0:f3:1a:18:eb:a4:e2:5d:56:
                    c5:6b:ae:9f:f2:dc:f0:75:1a:8c:c2:67:19:ff:dc:
                    55:e9:32:6a:81:6f:89:b5:bd:8f:ad:16:4e:14:03:
                    1d:be:b0:b9:72:94:a0:05:2c:a4:3d:40:46:57:d9:
                    e1:e9:7e:af:2d:7c:6a:b7:e2:e7:4f:5e:70:30:b6:
                    ee:2b:bb:d9:e0:28:c5:4f:20:85:35:d5:45:ef:bd:
                    68:f9:44:59:e9:a3:42:70:99:42:78:c5:fa:5a:c1:
                    c1:99
                Exponent: 65537 (0x10001)
        X509v3 extensions:
            X509v3 Key Usage: critical
                Certificate Sign, CRL Sign
            X509v3 Basic Constraints: critical
                CA:TRUE
            X509v3 Subject Key Identifier: 
                48:7F:4D:43:34:0F:4D:F6:52:7E:DA:F4:98:C8:F5:9E:02:FA:E1:1C
            X509v3 Authority Key Identifier: 
                keyid:48:7F:4D:43:34:0F:4D:F6:52:7E:DA:F4:98:C8:F5:9E:02:FA:E1:1C

    Signature Algorithm: sha256WithRSAEncryption
        7d:01:35:f9:a7:29:17:39:a1:ce:5e:a0:c2:a4:6f:09:9c:f0:
        82:19:da:48:68:b2:aa:21:0a:97:25:0b:48:37:36:e0:9d:a1:
        db:6b:3e:1c:e4:e2:67:7c:0f:34:05:05:f3:67:0c:5d:10:c3:
        92:64:ae:55:88:a9:70:7b:69:d0:35:7f:05:49:00:93:f2:73:
        ad:2b:3d:ba:45:eb:0c:d1:44:45:50:7e:e8:9c:88:c4:f7:ca:
        0c:fa:82:28:d3:33:03:0d:ec:fc:f0:a6:a8:b0:9d:df:d4:23:
        af:d6:8e:3a:94:6e:ca:e6:95:c2:0a:84:12:ee:fc:e0:eb:55:
        ae:67:f7:68:2f:99:a6:f5:74:e8:39:c1:1b:b1:c8:f1:2e:f5:
        be:0a:7c:2b:53:2d:65:56:74:35:93:fb:29:a9:04:7f:99:ac:
        0d:a9:dc:b2:19:13:0e:b3:d9:11:1d:c0:bc:aa:02:83:95:ca:
        5c:16:7e:bd:36:87:09:4f:f1:3c:59:38:d9:c5:b4:b2:d8:19:
        b1:f9:8f:10:6f:2d:33:41:89:40:25:cc:8d:89:ab:a4:95:75:
        f6:85:0a:f2:ec:7a:8e:d2:23:b1:da:cc:81:6d:4b:67:cb:c3:
        1e:ca:0b:18:79:0e:28:4a:ce:39:79:d7:20:4e:79:b7:fa:a4:
        44:54:0c:0a
-----BEGIN CERTIFICATE-----
MIIDWDCCAkCgAwIBAgIBATANBgkqhkiG9w0BAQsFADA9MQ0wCwYDVQQKDARNQU5I
MRUwEwYDVQQLDAxNQU5IIFJvb3QgQ0ExFTATBgNVBAMMDE1BTkggUm9vdCBDQTAe
Fw0xNjEyMzAxNjI0NDVaFw0yNjEyMzAxNjI0NDVaMD0xDTALBgNVBAoMBE1BTkgx
FTATBgNVBAsMDE1BTkggUm9vdCBDQTEVMBMGA1UEAwwMTUFOSCBSb290IENBMIIB
IjANBgkqhkiG9w0BAQEFAAOCAQ8AMIIBCgKCAQEAr4lAP37tm2tRBAsH7dmJO3ox
ilAgoIWaN5UO1jsDtI8Jv7v3CIg8DyDfQbZCmtjNPdysctnnAGqoxys89rfVlvAC
Sr+7gwlq4VHoKXq31ZH9Uo6LfIKWDD5Cw0XpF+yIwwjiGVWfKabOcfd9kkkZtsIy
9rBHmMOEOdzrNSgyfwudU+ouOg9skoV2iuGimezxtm6az92v7muJMcTQ8xoY66Ti
XVbFa66f8tzwdRqMwmcZ/9xV6TJqgW+Jtb2PrRZOFAMdvrC5cpSgBSykPUBGV9nh
6X6vLXxqt+LnT15wMLbuK7vZ4CjFTyCFNdVF771o+URZ6aNCcJlCeMX6WsHBmQID
AQABo2MwYTAOBgNVHQ8BAf8EBAMCAQYwDwYDVR0TAQH/BAUwAwEB/zAdBgNVHQ4E
FgQUSH9NQzQPTfZSftr0mMj1ngL64RwwHwYDVR0jBBgwFoAUSH9NQzQPTfZSftr0
mMj1ngL64RwwDQYJKoZIhvcNAQELBQADggEBAH0BNfmnKRc5oc5eoMKkbwmc8IIZ
2khosqohCpclC0g3NuCdodtrPhzk4md8DzQFBfNnDF0Qw5JkrlWIqXB7adA1fwVJ
AJPyc60rPbpF6wzRREVQfuiciMT3ygz6gijTMwMN7Pzwpqiwnd/UI6/WjjqUbsrm
lcIKhBLu/ODrVa5n92gvmab1dOg5wRuxyPEu9b4KfCtTLWVWdDWT+ympBH+ZrA2p
3LIZEw6z2REdwLyqAoOVylwWfr02hwlP8TxZONnFtLLYGbH5jxBvLTNBiUAlzI2J
q6SVdfaFCvLseo7SI7HazIFtS2fLwx7KCxh5DihKzjl51yBOebf6pERUDAo=
-----END CERTIFICATE-----
